; Function Attrs: nounwind uwtable
define internal range(i32 -1, 1) i32 @aes_ctr_update(ptr noundef %0, ptr noundef readonly captures(none) %1, i64 noundef %2, ptr noundef writeonly captures(none) %3, ptr noundef captures(none) %4) #1 {
  %6 = alloca i32, align 4
  %7 = alloca i32, align 4
  %8 = getelementptr inbounds nuw i8, ptr %0, i64 68
  %9 = getelementptr inbounds nuw i8, ptr %0, i64 84
  %10 = load i32, ptr %9, align 4, !tbaa !14
  %11 = load i64, ptr %4, align 8, !tbaa !15
  %. = tail call i64 @llvm.umin.i64(i64 %2, i64 %11)
  %12 = trunc i64 %. to i32
  %.not = icmp eq i32 %12, 0
  br i1 %.not, label %._crit_edge, label %.lr.ph

.lr.ph:                                           ; preds = %5
  %13 = getelementptr inbounds nuw i8, ptr %0, i64 52
  %14 = getelementptr inbounds nuw i8, ptr %0, i64 8
  %15 = getelementptr inbounds nuw i8, ptr %0, i64 16
  br label %16

16:                                               ; preds = %.lr.ph, %55
  %.073 = phi i32 [ 0, %.lr.ph ], [ %65, %55 ]
  %.04072 = phi i32 [ %10, %.lr.ph ], [ %59, %55 ]
  %17 = icmp eq i32 %.04072, 16
  br i1 %17, label %.preheader78, label %55

.preheader78:                                     ; preds = %16, %.preheader78
  %indvars.iv.i = phi i64 [ %indvars.iv.next.i, %.preheader78 ], [ 0, %16 ]
  %18 = getelementptr inbounds nuw i8, ptr %13, i64 %indvars.iv.i
  %19 = load i8, ptr %18, align 1, !tbaa !17
  %20 = add i8 %19, 1
  store i8 %20, ptr %18, align 1, !tbaa !17
  %.not.i = icmp ne i8 %20, 0
  %indvars.iv.next.i = add nuw nsw i64 %indvars.iv.i, 1
  %exitcond.not.i = icmp eq i64 %indvars.iv.next.i, 8
  %or.cond.i = select i1 %.not.i, i1 true, i1 %exitcond.not.i
  br i1 %or.cond.i, label %aes_ctr_increase_counter.exit, label %.preheader78, !llvm.loop !18

aes_ctr_increase_counter.exit:                    ; preds = %.preheader78
  call void @llvm.lifetime.start.p0(i64 4, ptr nonnull %7) #7
  store i32 0, ptr %7, align 4, !tbaa !20
  %21 = load ptr, ptr %0, align 8, !tbaa !4
  %22 = load ptr, ptr %14, align 8, !tbaa !12
  %23 = call i32 @EVP_EncryptInit_ex(ptr noundef %21, ptr noundef %22, ptr noundef null, ptr noundef nonnull %15, ptr noundef null) #7
  %24 = icmp eq i32 %23, 0
  br i1 %24, label %aes_ctr_encrypt_counter.exit.thread, label %aes_ctr_encrypt_counter.exit

aes_ctr_encrypt_counter.exit.thread:              ; preds = %aes_ctr_increase_counter.exit
  call void @llvm.lifetime.end.p0(i64 4, ptr nonnull %7) #7
  br label %.loopexit

aes_ctr_encrypt_counter.exit:                     ; preds = %aes_ctr_increase_counter.exit
  %25 = load ptr, ptr %0, align 8, !tbaa !4
  %26 = call i32 @EVP_EncryptUpdate(ptr noundef %25, ptr noundef nonnull %8, ptr noundef nonnull %7, ptr noundef nonnull %13, i32 noundef 16) #7
  %27 = icmp ne i32 %26, 0
  %28 = load i32, ptr %7, align 4
  %29 = icmp eq i32 %28, 16
  %or.cond.i49.not = select i1 %27, i1 %29, i1 false
  call void @llvm.lifetime.end.p0(i64 4, ptr nonnull %7) #7
  br i1 %or.cond.i49.not, label %.preheader67, label %.loopexit

.preheader67:                                     ; preds = %aes_ctr_encrypt_counter.exit, %aes_ctr_encrypt_counter.exit59
  %.3 = phi i32 [ %48, %aes_ctr_encrypt_counter.exit59 ], [ %.073, %aes_ctr_encrypt_counter.exit ]
  %30 = sub i32 %12, %.3
  %31 = icmp ugt i32 %30, 15
  br i1 %31, label %.preheader, label %54

.preheader:                                       ; preds = %.preheader67, %.preheader
  %indvars.iv = phi i64 [ %indvars.iv.next, %.preheader ], [ 0, %.preheader67 ]
  %32 = trunc nuw nsw i64 %indvars.iv to i32
  %33 = add i32 %.3, %32
  %34 = zext i32 %33 to i64
  %35 = getelementptr inbounds nuw i8, ptr %1, i64 %34
  %36 = load i8, ptr %35, align 1, !tbaa !17
  %37 = getelementptr inbounds nuw i8, ptr %8, i64 %indvars.iv
  %38 = load i8, ptr %37, align 1, !tbaa !17
  %39 = xor i8 %38, %36
  %40 = getelementptr inbounds nuw i8, ptr %3, i64 %34
  store i8 %39, ptr %40, align 1, !tbaa !17
  %indvars.iv.next = add nuw nsw i64 %indvars.iv, 1
  %exitcond.not = icmp eq i64 %indvars.iv.next, 16
  br i1 %exitcond.not, label %.preheader86, label %.preheader, !llvm.loop !21

.preheader86:                                     ; preds = %.preheader, %.preheader86
  %indvars.iv.i50 = phi i64 [ %indvars.iv.next.i52, %.preheader86 ], [ 0, %.preheader ]
  %41 = getelementptr inbounds nuw i8, ptr %13, i64 %indvars.iv.i50
  %42 = load i8, ptr %41, align 1, !tbaa !17
  %43 = add i8 %42, 1
  store i8 %43, ptr %41, align 1, !tbaa !17
  %.not.i51 = icmp ne i8 %43, 0
  %indvars.iv.next.i52 = add nuw nsw i64 %indvars.iv.i50, 1
  %exitcond.not.i53 = icmp eq i64 %indvars.iv.next.i52, 8
  %or.cond.i54 = select i1 %.not.i51, i1 true, i1 %exitcond.not.i53
  br i1 %or.cond.i54, label %aes_ctr_increase_counter.exit55, label %.preheader86, !llvm.loop !18

aes_ctr_increase_counter.exit55:                  ; preds = %.preheader86
  call void @llvm.lifetime.start.p0(i64 4, ptr nonnull %6) #7
  store i32 0, ptr %6, align 4, !tbaa !20
  %44 = load ptr, ptr %0, align 8, !tbaa !4
  %45 = load ptr, ptr %14, align 8, !tbaa !12
  %46 = call i32 @EVP_EncryptInit_ex(ptr noundef %44, ptr noundef %45, ptr noundef null, ptr noundef nonnull %15, ptr noundef null) #7
  %47 = icmp eq i32 %46, 0
  br i1 %47, label %aes_ctr_encrypt_counter.exit59.thread, label %aes_ctr_encrypt_counter.exit59

aes_ctr_encrypt_counter.exit59.thread:            ; preds = %aes_ctr_increase_counter.exit55
  call void @llvm.lifetime.end.p0(i64 4, ptr nonnull %6) #7
  br label %.loopexit

aes_ctr_encrypt_counter.exit59:                   ; preds = %aes_ctr_increase_counter.exit55
  %48 = add i32 %.3, 16
  %49 = load ptr, ptr %0, align 8, !tbaa !4
  %50 = call i32 @EVP_EncryptUpdate(ptr noundef %49, ptr noundef nonnull %8, ptr noundef nonnull %6, ptr noundef nonnull %13, i32 noundef 16) #7
  %51 = icmp ne i32 %50, 0
  %52 = load i32, ptr %6, align 4
  %53 = icmp eq i32 %52, 16
  %or.cond.i56.not = select i1 %51, i1 %53, i1 false
  call void @llvm.lifetime.end.p0(i64 4, ptr nonnull %6) #7
  br i1 %or.cond.i56.not, label %.preheader67, label %.loopexit, !llvm.loop !22

54:                                               ; preds = %.preheader67
  %.not47 = icmp ult i32 %.3, %12
  br i1 %.not47, label %55, label %._crit_edge.loopexit

55:                                               ; preds = %54, %16
  %.242 = phi i32 [ 0, %54 ], [ %.04072, %16 ]
  %.2 = phi i32 [ %.3, %54 ], [ %.073, %16 ]
  %56 = zext i32 %.2 to i64
  %57 = getelementptr inbounds nuw i8, ptr %1, i64 %56
  %58 = load i8, ptr %57, align 1, !tbaa !17
  %59 = add i32 %.242, 1
  %60 = zext i32 %.242 to i64
  %61 = getelementptr inbounds nuw i8, ptr %8, i64 %60
  %62 = load i8, ptr %61, align 1, !tbaa !17
  %63 = xor i8 %62, %58
  %64 = getelementptr inbounds nuw i8, ptr %3, i64 %56
  store i8 %63, ptr %64, align 1, !tbaa !17
  %65 = add nuw i32 %.2, 1
  %66 = icmp ult i32 %65, %12
  br i1 %66, label %16, label %._crit_edge.loopexit, !llvm.loop !23

._crit_edge.loopexit:                             ; preds = %54, %55
  %.141.ph = phi i32 [ %59, %55 ], [ 0, %54 ]
  %.1.ph = phi i32 [ %65, %55 ], [ %.3, %54 ]
  %67 = zext i32 %.1.ph to i64
  br label %._crit_edge

._crit_edge:                                      ; preds = %._crit_edge.loopexit, %5
  %.141 = phi i32 [ %10, %5 ], [ %.141.ph, %._crit_edge.loopexit ]
  %.1 = phi i64 [ 0, %5 ], [ %67, %._crit_edge.loopexit ]
  store i32 %.141, ptr %9, align 4, !tbaa !14
  store i64 %.1, ptr %4, align 8, !tbaa !15
  br label %.loopexit

.loopexit:                                        ; preds = %aes_ctr_encrypt_counter.exit, %aes_ctr_encrypt_counter.exit59, %aes_ctr_encrypt_counter.exit59.thread, %aes_ctr_encrypt_counter.exit.thread, %._crit_edge
  %.039 = phi i32 [ 0, %._crit_edge ], [ -1, %aes_ctr_encrypt_counter.exit.thread ], [ -1, %aes_ctr_encrypt_counter.exit59.thread ], [ -1, %aes_ctr_encrypt_counter.exit59 ], [ -1, %aes_ctr_encrypt_counter.exit ]
  ret i32 %.039
}